target datalayout = "e-m:e-p270:32:32-p271:32:32-p272:64:64-i64:64-i128:128-f80:128-n8:16:32:64-S128"
target triple = "x86_64-pc-linux-gnu"

@rb_eTypeError = external global i64, align 8
@.str.164 = private unnamed_addr constant [31 x i8] c"%li\0B does not have #dig method\00", align 1

; Function Attrs: nounwind sspstrong uwtable
define internal void @no_dig_method(i32 noundef %0, i64 noundef %1, i64 noundef %2, i32 noundef %3, ptr noundef %4, i64 noundef %5) #0 {
  %7 = alloca i32, align 4
  %8 = alloca i64, align 8
  %9 = alloca i64, align 8
  %10 = alloca i32, align 4
  %11 = alloca ptr, align 8
  %12 = alloca i64, align 8
  store i32 %0, ptr %7, align 4, !tbaa !7
  store i64 %1, ptr %8, align 8, !tbaa !11
  store i64 %2, ptr %9, align 8, !tbaa !11
  store i32 %3, ptr %10, align 4, !tbaa !7
  store ptr %4, ptr %11, align 8, !tbaa !36
  store i64 %5, ptr %12, align 8, !tbaa !11
  %13 = load i32, ptr %7, align 4, !tbaa !7
  %14 = icmp ne i32 %13, 0
  br i1 %14, label %19, label %15

15:                                               ; preds = %6
  %16 = load i64, ptr @rb_eTypeError, align 8, !tbaa !11
  %17 = load i64, ptr %12, align 8, !tbaa !11
  %18 = call i64 @rb_class_of(i64 noundef %17) #29
  call void (i64, ptr, ...) @rb_raise(i64 noundef %16, ptr noundef @.str.164, i64 noundef %18) #31
  unreachable

19:                                               ; preds = %6
  ret void
}