; Function Attrs: nounwind sspstrong uwtable
define internal void @no_dig_method(i32 noundef %0, i64 %1, i64 %2, i32 %3, ptr readnone captures(none) %4, i64 noundef %5) #2 {
  %.not = icmp eq i32 %0, 0
  br i1 %.not, label %7, label %10

7:                                                ; preds = %6
  %8 = load i64, ptr @rb_eTypeError, align 8, !tbaa !7
  %9 = tail call fastcc i64 @rb_class_of(i64 noundef %5) #26
  tail call void (i64, ptr, ...) @rb_raise(i64 noundef %8, ptr noundef nonnull @.str.164, i64 noundef %9) #24
  unreachable

10:                                               ; preds = %6
  ret void
}